target datalayout = "e-m:e-p270:32:32-p271:32:32-p272:64:64-i64:64-i128:128-f80:128-n8:16:32:64-S128"
target triple = "x86_64-pc-linux-gnu"

%class.ArrayCopyNode = type { %class.CallNode, i32, i8, i8, i8, ptr, ptr }
%class.CallNode = type { %class.SafePointNode.base, ptr, ptr, float, ptr, ptr }
%class.SafePointNode.base = type <{ %class.MultiNode.base, [4 x i8], ptr, ptr, %class.ReplacedNodes, i8 }>
%class.MultiNode.base = type { %class.Node.base }
%class.Node.base = type <{ ptr, ptr, ptr, i32, i32, i32, i32, i32, i32, i32 }>
%class.ReplacedNodes = type { ptr }
%class.Node = type <{ ptr, ptr, ptr, i32, i32, i32, i32, i32, i32, i32, [4 x i8] }>
%class.Compile = type <{ %class.Phase, i32, %class.Options, [4 x i8], ptr, i32, [4 x i8], ptr, ptr, ptr, ptr, ptr, i32, i32, i32, [4 x i8], i64, i8, i8, [2 x i8], i32, i8, i8, i8, i8, i8, i8, i8, i8, i8, [3 x i8], i32, i8, [3 x i8], [30 x i32], i8, [3 x i8], i32, i8, i8, i8, i8, i8, i8, i8, i8, i8, i8, i8, i8, i8, [3 x i8], i32, i32, [4 x i8], %class.Arena, ptr, ptr, ptr, ptr, %class.CHeapStringHolder, ptr, %class.GrowableArray, %class.GrowableArray.0, %class.GrowableArray.3, %class.GrowableArray.0, %class.GrowableArray.0, %class.GrowableArray.0, %class.GrowableArray.6, %class.GrowableArray.9, ptr, i32, i32, %class.VectorSet, %class.Arena, %class.Arena, ptr, ptr, ptr, ptr, ptr, ptr, ptr, ptr, ptr, %class.Arena, ptr, ptr, %class.CloneMap, i64, ptr, ptr, ptr, i32, i32, [64 x %"struct.Compile::AliasCacheEntry"], ptr, ptr, ptr, ptr, %class.GrowableArray, %class.GrowableArray, %class.GrowableArray, %class.GrowableArray, i32, i32, i8, [7 x i8], ptr, ptr, i32, [4 x i8], ptr, ptr, ptr, i32, i32, ptr, ptr, %class.RegMask, ptr, ptr, i32, [4 x i8], ptr, %class.TimeInstant, i32, [4 x i8] }>
%class.Phase = type { i32, ptr }
%class.Options = type { i8, i8, i8, i8, i8, i8, i8, i8 }
%class.CHeapStringHolder = type { ptr }
%class.GrowableArray.3 = type { %class.GrowableArrayWithAllocator.4, %class.GrowableArrayMetadata }
%class.GrowableArrayWithAllocator.4 = type { %class.GrowableArrayView.5 }
%class.GrowableArrayView.5 = type { %class.GrowableArrayBase, ptr }
%class.GrowableArrayBase = type { i32, i32 }
%class.GrowableArrayMetadata = type { i64 }
%class.GrowableArray.0 = type { %class.GrowableArrayWithAllocator.1, %class.GrowableArrayMetadata }
%class.GrowableArrayWithAllocator.1 = type { %class.GrowableArrayView.2 }
%class.GrowableArrayView.2 = type { %class.GrowableArrayBase, ptr }
%class.GrowableArray.6 = type { %class.GrowableArrayWithAllocator.7, %class.GrowableArrayMetadata }
%class.GrowableArrayWithAllocator.7 = type { %class.GrowableArrayView.8 }
%class.GrowableArrayView.8 = type { %class.GrowableArrayBase, ptr }
%class.GrowableArray.9 = type { %class.GrowableArrayWithAllocator.10, %class.GrowableArrayMetadata }
%class.GrowableArrayWithAllocator.10 = type { %class.GrowableArrayView.11 }
%class.GrowableArrayView.11 = type { %class.GrowableArrayBase, ptr }
%class.VectorSet = type { i32, ptr, i32, ptr }
%class.Arena = type { i8, i8, i64, ptr, ptr, ptr, ptr }
%class.CloneMap = type <{ i8, [7 x i8], ptr, i32, [4 x i8] }>
%"struct.Compile::AliasCacheEntry" = type { ptr, i32 }
%class.GrowableArray = type { %class.GrowableArrayWithAllocator, %class.GrowableArrayMetadata }
%class.GrowableArrayWithAllocator = type { %class.GrowableArrayView }
%class.GrowableArrayView = type { %class.GrowableArrayBase, ptr }
%class.RegMask = type { %union.anon, i32, i32 }
%union.anon = type { [11 x i64] }
%class.TimeInstant = type { %class.CompositeCounterRepresentation }
%class.CompositeCounterRepresentation = type { %class.Representation }
%class.Representation = type { %class.PairRep }
%class.PairRep = type { i64, i64 }
%class.Type.base = type <{ ptr, ptr, i32 }>
%class.TypeFunc = type { %class.Type.base, ptr, ptr }
%class.TypeTuple = type { %class.Type.base, i32, ptr }
%class.SafePointNode = type <{ %class.MultiNode.base, [4 x i8], ptr, ptr, %class.ReplacedNodes, i8, [7 x i8] }>

@_ZN7TypePtr6BOTTOME = external global ptr, align 8
@_ZTV13ArrayCopyNode = external unnamed_addr constant { [32 x ptr] }, align 8
@_ZN10TypeOopPtr6BOTTOME = external global ptr, align 8
@_ZN11TypeInstPtr6BOTTOME = external global ptr, align 8
@_ZN7TypeInt3INTE = external global ptr, align 8
@_ZTV8CallNode = external unnamed_addr constant { [32 x ptr] }, align 8
@_ZTV13SafePointNode = external unnamed_addr constant { [28 x ptr] }, align 8
@_ZTV9MultiNode = external unnamed_addr constant { [27 x ptr] }, align 8

; Function Attrs: mustprogress nounwind uwtable
define linkonce_odr hidden noundef i32 @_ZN21CountLeadingZerosImplIiLm4EE4doitEi(i32 noundef %0) #1 comdat align 2 {
  %2 = alloca i32, align 4
  store i32 %0, ptr %2, align 4
  %3 = load i32, ptr %2, align 4
  %4 = call i32 @llvm.ctlz.i32(i32 %3, i1 true)
  ret i32 %4
}

; Function Attrs: mustprogress nounwind uwtable
define linkonce_odr hidden noundef i32 @_Z19count_leading_zerosIiEjT_(i32 noundef %0) #1 comdat {
  %2 = alloca i32, align 4
  store i32 %0, ptr %2, align 4
  %3 = load i32, ptr %2, align 4
  %4 = call noundef i32 @_ZN21CountLeadingZerosImplIiLm4EE4doitEi(i32 noundef %3)
  ret i32 %4
}

; Function Attrs: mustprogress nounwind uwtable
define linkonce_odr hidden noundef i32 @_Z5log2iIiTnNSt9enable_ifIXcvbsr3std11is_integralIT_EE5valueEiE4typeELi0EEiS1_(i32 noundef %0) #1 comdat {
  %2 = alloca i32, align 4
  %3 = alloca i32, align 4
  store i32 %0, ptr %2, align 4
  store i32 32, ptr %3, align 4
  %4 = load i32, ptr %2, align 4
  %5 = call noundef i32 @_Z19count_leading_zerosIiEjT_(i32 noundef %4)
  %6 = sub i32 32, %5
  %7 = sub i32 %6, 1
  ret i32 %7
}

; Function Attrs: mustprogress nounwind uwtable
define linkonce_odr hidden noundef zeroext i1 @_Z13is_power_of_2IiTnNSt9enable_ifIXcvbsr3std11is_integralIT_EE5valueEiE4typeELi0EEbS1_(i32 noundef %0) #1 comdat {
  %2 = alloca i32, align 4
  store i32 %0, ptr %2, align 4
  %3 = load i32, ptr %2, align 4
  %4 = icmp sgt i32 %3, 0
  br i1 %4, label %5, label %11

5:                                                ; preds = %1
  %6 = load i32, ptr %2, align 4
  %7 = load i32, ptr %2, align 4
  %8 = sub nsw i32 %7, 1
  %9 = and i32 %6, %8
  %10 = icmp eq i32 %9, 0
  br label %11

11:                                               ; preds = %5, %1
  %12 = phi i1 [ false, %1 ], [ %10, %5 ]
  ret i1 %12
}

; Function Attrs: mustprogress nounwind uwtable
define linkonce_odr hidden noundef i32 @_Z19round_up_power_of_2IiTnNSt9enable_ifIXcvbsr3std11is_integralIT_EE5valueEiE4typeELi0EES1_S1_(i32 noundef %0) #1 comdat {
  %2 = alloca i32, align 4
  %3 = alloca i32, align 4
  store i32 %0, ptr %3, align 4
  %4 = load i32, ptr %3, align 4
  %5 = call noundef zeroext i1 @_Z13is_power_of_2IiTnNSt9enable_ifIXcvbsr3std11is_integralIT_EE5valueEiE4typeELi0EEbS1_(i32 noundef %4)
  br i1 %5, label %6, label %8

6:                                                ; preds = %1
  %7 = load i32, ptr %3, align 4
  store i32 %7, ptr %2, align 4
  br label %13

8:                                                ; preds = %1
  %9 = load i32, ptr %3, align 4
  %10 = call noundef i32 @_Z5log2iIiTnNSt9enable_ifIXcvbsr3std11is_integralIT_EE5valueEiE4typeELi0EEiS1_(i32 noundef %9)
  %11 = add nsw i32 %10, 1
  %12 = shl i32 1, %11
  store i32 %12, ptr %2, align 4
  br label %13

13:                                               ; preds = %8, %6
  %14 = load i32, ptr %2, align 4
  ret i32 %14
}

; Function Attrs: mustprogress nounwind uwtable
define linkonce_odr hidden noundef i32 @_Z15next_power_of_2IiTnNSt9enable_ifIXcvbsr3std11is_integralIT_EE5valueEiE4typeELi0EES1_S1_(i32 noundef %0) #1 comdat {
  %2 = alloca i32, align 4
  store i32 %0, ptr %2, align 4
  %3 = load i32, ptr %2, align 4
  %4 = add nsw i32 %3, 1
  %5 = call noundef i32 @_Z19round_up_power_of_2IiTnNSt9enable_ifIXcvbsr3std11is_integralIT_EE5valueEiE4typeELi0EES1_S1_(i32 noundef %4)
  ret i32 %5
}

; Function Attrs: mustprogress nounwind uwtable
define linkonce_odr hidden void @_ZN26GrowableArrayWithAllocatorIP4Node13GrowableArrayIS1_EE4growEi(ptr noundef nonnull align 8 dereferenceable(16) %0, i32 noundef %1) #1 comdat align 2 {
  %3 = alloca ptr, align 8
  %4 = alloca i32, align 4
  store ptr %0, ptr %3, align 8
  store i32 %1, ptr %4, align 4
  %5 = load ptr, ptr %3, align 8
  %6 = load i32, ptr %4, align 4
  %7 = call noundef i32 @_Z15next_power_of_2IiTnNSt9enable_ifIXcvbsr3std11is_integralIT_EE5valueEiE4typeELi0EES1_S1_(i32 noundef %6)
  call void @_ZN26GrowableArrayWithAllocatorIP4Node13GrowableArrayIS1_EE9expand_toEi(ptr noundef nonnull align 8 dereferenceable(16) %5, i32 noundef %7)
  ret void
}

; Function Attrs: mustprogress nounwind uwtable
define linkonce_odr hidden void @_ZN13ReplacedNodesC2Ev(ptr noundef nonnull align 8 dereferenceable(8) %0) unnamed_addr #1 comdat align 2 {
  %2 = alloca ptr, align 8
  store ptr %0, ptr %2, align 8
  %3 = load ptr, ptr %2, align 8
  %4 = getelementptr inbounds %class.ReplacedNodes, ptr %3, i32 0, i32 0
  store ptr null, ptr %4, align 8
  ret void
}

; Function Attrs: mustprogress nounwind uwtable
define linkonce_odr hidden void @_ZN9MultiNodeC2Ej(ptr noundef nonnull align 8 dereferenceable(52) %0, i32 noundef %1) unnamed_addr #1 comdat align 2 {
  %3 = alloca ptr, align 8
  %4 = alloca i32, align 4
  store ptr %0, ptr %3, align 8
  store i32 %1, ptr %4, align 4
  %5 = load ptr, ptr %3, align 8
  %6 = load i32, ptr %4, align 4
  call void @_ZN4NodeC2Ej(ptr noundef nonnull align 8 dereferenceable(52) %5, i32 noundef %6)
  store ptr getelementptr inbounds inrange(-16, 200) ({ [27 x ptr] }, ptr @_ZTV9MultiNode, i32 0, i32 0, i32 2), ptr %5, align 8
  call void @_ZN4Node13init_class_idEj(ptr noundef nonnull align 8 dereferenceable(52) %5, i32 noundef 1)
  ret void
}

; Function Attrs: mustprogress nounwind uwtable
define linkonce_odr hidden noundef i32 @_ZN26GrowableArrayWithAllocatorIP4Node13GrowableArrayIS1_EE6appendERKS1_(ptr noundef nonnull align 8 dereferenceable(16) %0, ptr noundef nonnull align 8 dereferenceable(8) %1) #1 comdat align 2 {
  %3 = alloca ptr, align 8
  %4 = alloca ptr, align 8
  %5 = alloca i32, align 4
  store ptr %0, ptr %3, align 8
  store ptr %1, ptr %4, align 8
  %6 = load ptr, ptr %3, align 8
  %7 = getelementptr inbounds %class.GrowableArrayBase, ptr %6, i32 0, i32 0
  %8 = load i32, ptr %7, align 8
  %9 = getelementptr inbounds %class.GrowableArrayBase, ptr %6, i32 0, i32 1
  %10 = load i32, ptr %9, align 4
  %11 = icmp eq i32 %8, %10
  br i1 %11, label %12, label %15

12:                                               ; preds = %2
  %13 = getelementptr inbounds %class.GrowableArrayBase, ptr %6, i32 0, i32 0
  %14 = load i32, ptr %13, align 8
  call void @_ZN26GrowableArrayWithAllocatorIP4Node13GrowableArrayIS1_EE4growEi(ptr noundef nonnull align 8 dereferenceable(16) %6, i32 noundef %14)
  br label %15

15:                                               ; preds = %12, %2
  %16 = getelementptr inbounds %class.GrowableArrayBase, ptr %6, i32 0, i32 0
  %17 = load i32, ptr %16, align 8
  %18 = add nsw i32 %17, 1
  store i32 %18, ptr %16, align 8
  store i32 %17, ptr %5, align 4
  %19 = load ptr, ptr %4, align 8
  %20 = load ptr, ptr %19, align 8
  %21 = getelementptr inbounds %class.GrowableArrayView.2, ptr %6, i32 0, i32 1
  %22 = load ptr, ptr %21, align 8
  %23 = load i32, ptr %5, align 4
  %24 = sext i32 %23 to i64
  %25 = getelementptr inbounds ptr, ptr %22, i64 %24
  store ptr %20, ptr %25, align 8
  %26 = load i32, ptr %5, align 4
  ret i32 %26
}

; Function Attrs: mustprogress nounwind uwtable
define linkonce_odr hidden void @_ZN13SafePointNodeC2EjP8JVMStatePK7TypePtr(ptr noundef nonnull align 8 dereferenceable(81) %0, i32 noundef %1, ptr noundef %2, ptr noundef %3) unnamed_addr #1 comdat align 2 {
  %5 = alloca ptr, align 8
  %6 = alloca i32, align 4
  %7 = alloca ptr, align 8
  %8 = alloca ptr, align 8
  store ptr %0, ptr %5, align 8
  store i32 %1, ptr %6, align 4
  store ptr %2, ptr %7, align 8
  store ptr %3, ptr %8, align 8
  %9 = load ptr, ptr %5, align 8
  %10 = load i32, ptr %6, align 4
  call void @_ZN9MultiNodeC2Ej(ptr noundef nonnull align 8 dereferenceable(52) %9, i32 noundef %10)
  store ptr getelementptr inbounds inrange(-16, 208) ({ [28 x ptr] }, ptr @_ZTV13SafePointNode, i32 0, i32 0, i32 2), ptr %9, align 8
  %11 = getelementptr inbounds %class.SafePointNode, ptr %9, i32 0, i32 2
  %12 = load ptr, ptr %7, align 8
  store ptr %12, ptr %11, align 8
  %13 = getelementptr inbounds %class.SafePointNode, ptr %9, i32 0, i32 3
  %14 = load ptr, ptr %8, align 8
  store ptr %14, ptr %13, align 8
  %15 = getelementptr inbounds %class.SafePointNode, ptr %9, i32 0, i32 4
  call void @_ZN13ReplacedNodesC2Ev(ptr noundef nonnull align 8 dereferenceable(8) %15)
  %16 = getelementptr inbounds %class.SafePointNode, ptr %9, i32 0, i32 5
  store i8 0, ptr %16, align 8
  call void @_ZN4Node13init_class_idEj(ptr noundef nonnull align 8 dereferenceable(52) %9, i32 noundef 3)
  ret void
}

; Function Attrs: mustprogress nounwind uwtable
define linkonce_odr hidden noundef i32 @_ZNK9TypeTuple3cntEv(ptr noundef nonnull align 8 dereferenceable(32) %0) #1 comdat align 2 {
  %2 = alloca ptr, align 8
  store ptr %0, ptr %2, align 8
  %3 = load ptr, ptr %2, align 8
  %4 = getelementptr inbounds %class.TypeTuple, ptr %3, i32 0, i32 1
  %5 = load i32, ptr %4, align 4
  ret i32 %5
}

; Function Attrs: mustprogress nounwind uwtable
define linkonce_odr hidden noundef ptr @_ZNK8TypeFunc6domainEv(ptr noundef nonnull align 8 dereferenceable(40) %0) #1 comdat align 2 {
  %2 = alloca ptr, align 8
  store ptr %0, ptr %2, align 8
  %3 = load ptr, ptr %2, align 8
  %4 = getelementptr inbounds %class.TypeFunc, ptr %3, i32 0, i32 1
  %5 = load ptr, ptr %4, align 8
  ret ptr %5
}

; Function Attrs: mustprogress nounwind uwtable
define linkonce_odr hidden void @_ZN7Compile14add_macro_nodeEP4Node(ptr noundef nonnull align 8 dereferenceable(2316) %0, ptr noundef %1) #1 comdat align 2 {
  %3 = alloca ptr, align 8
  %4 = alloca ptr, align 8
  store ptr %0, ptr %3, align 8
  store ptr %1, ptr %4, align 8
  %5 = load ptr, ptr %3, align 8
  %6 = getelementptr inbounds %class.Compile, ptr %5, i32 0, i32 63
  %7 = call noundef i32 @_ZN26GrowableArrayWithAllocatorIP4Node13GrowableArrayIS1_EE6appendERKS1_(ptr noundef nonnull align 8 dereferenceable(16) %6, ptr noundef nonnull align 8 dereferenceable(8) %4)
  ret void
}

; Function Attrs: mustprogress nounwind uwtable
define linkonce_odr hidden void @_ZN4Node10init_flagsEj(ptr noundef nonnull align 8 dereferenceable(52) %0, i32 noundef %1) #1 comdat align 2 {
  %3 = alloca ptr, align 8
  %4 = alloca i32, align 4
  store ptr %0, ptr %3, align 8
  store i32 %1, ptr %4, align 4
  %5 = load ptr, ptr %3, align 8
  %6 = load i32, ptr %4, align 4
  %7 = getelementptr inbounds %class.Node, ptr %5, i32 0, i32 9
  %8 = load i32, ptr %7, align 8
  %9 = or i32 %8, %6
  store i32 %9, ptr %7, align 8
  ret void
}

; Function Attrs: mustprogress nounwind uwtable
define linkonce_odr hidden void @_ZN4Node13init_class_idEj(ptr noundef nonnull align 8 dereferenceable(52) %0, i32 noundef %1) #1 comdat align 2 {
  %3 = alloca ptr, align 8
  %4 = alloca i32, align 4
  store ptr %0, ptr %3, align 8
  store i32 %1, ptr %4, align 4
  %5 = load ptr, ptr %3, align 8
  %6 = load i32, ptr %4, align 4
  %7 = getelementptr inbounds %class.Node, ptr %5, i32 0, i32 8
  store i32 %6, ptr %7, align 4
  ret void
}

; Function Attrs: mustprogress nounwind uwtable
define linkonce_odr hidden void @_ZN8CallNodeC2EPK8TypeFuncPhPK7TypePtrP8JVMState(ptr noundef nonnull align 8 dereferenceable(128) %0, ptr noundef %1, ptr noundef %2, ptr noundef %3, ptr noundef %4) unnamed_addr #1 comdat align 2 {
  %6 = alloca ptr, align 8
  %7 = alloca ptr, align 8
  %8 = alloca ptr, align 8
  %9 = alloca ptr, align 8
  %10 = alloca ptr, align 8
  store ptr %0, ptr %6, align 8
  store ptr %1, ptr %7, align 8
  store ptr %2, ptr %8, align 8
  store ptr %3, ptr %9, align 8
  store ptr %4, ptr %10, align 8
  %11 = load ptr, ptr %6, align 8
  %12 = load ptr, ptr %7, align 8
  %13 = call noundef ptr @_ZNK8TypeFunc6domainEv(ptr noundef nonnull align 8 dereferenceable(40) %12)
  %14 = call noundef i32 @_ZNK9TypeTuple3cntEv(ptr noundef nonnull align 8 dereferenceable(32) %13)
  %15 = load ptr, ptr %10, align 8
  %16 = load ptr, ptr %9, align 8
  call void @_ZN13SafePointNodeC2EjP8JVMStatePK7TypePtr(ptr noundef nonnull align 8 dereferenceable(81) %11, i32 noundef %14, ptr noundef %15, ptr noundef %16)
  store ptr getelementptr inbounds inrange(-16, 240) ({ [32 x ptr] }, ptr @_ZTV8CallNode, i32 0, i32 0, i32 2), ptr %11, align 8
  %17 = getelementptr inbounds %class.CallNode, ptr %11, i32 0, i32 1
  %18 = load ptr, ptr %7, align 8
  store ptr %18, ptr %17, align 8
  %19 = getelementptr inbounds %class.CallNode, ptr %11, i32 0, i32 2
  %20 = load ptr, ptr %8, align 8
  store ptr %20, ptr %19, align 8
  %21 = getelementptr inbounds %class.CallNode, ptr %11, i32 0, i32 3
  store float -1.000000e+00, ptr %21, align 8
  %22 = getelementptr inbounds %class.CallNode, ptr %11, i32 0, i32 4
  store ptr null, ptr %22, align 8
  %23 = getelementptr inbounds %class.CallNode, ptr %11, i32 0, i32 5
  store ptr null, ptr %23, align 8
  call void @_ZN4Node13init_class_idEj(ptr noundef nonnull align 8 dereferenceable(52) %11, i32 noundef 7)
  ret void
}

; Function Attrs: mustprogress nounwind uwtable
define linkonce_odr hidden noundef ptr @_ZN13ArrayCopyNode14arraycopy_typeEv() #1 comdat align 2 {
  %1 = alloca ptr, align 8
  %2 = alloca ptr, align 8
  %3 = alloca ptr, align 8
  %4 = call noundef ptr @_ZN9TypeTuple6fieldsEj(i32 noundef 9)
  store ptr %4, ptr %1, align 8
  %5 = load ptr, ptr @_ZN11TypeInstPtr6BOTTOME, align 8
  %6 = load ptr, ptr %1, align 8
  %7 = getelementptr inbounds ptr, ptr %6, i64 5
  store ptr %5, ptr %7, align 8
  %8 = load ptr, ptr @_ZN7TypeInt3INTE, align 8
  %9 = load ptr, ptr %1, align 8
  %10 = getelementptr inbounds ptr, ptr %9, i64 6
  store ptr %8, ptr %10, align 8
  %11 = load ptr, ptr @_ZN11TypeInstPtr6BOTTOME, align 8
  %12 = load ptr, ptr %1, align 8
  %13 = getelementptr inbounds ptr, ptr %12, i64 7
  store ptr %11, ptr %13, align 8
  %14 = load ptr, ptr @_ZN7TypeInt3INTE, align 8
  %15 = load ptr, ptr %1, align 8
  %16 = getelementptr inbounds ptr, ptr %15, i64 8
  store ptr %14, ptr %16, align 8
  %17 = load ptr, ptr @_ZN7TypeInt3INTE, align 8
  %18 = load ptr, ptr %1, align 8
  %19 = getelementptr inbounds ptr, ptr %18, i64 9
  store ptr %17, ptr %19, align 8
  %20 = load ptr, ptr @_ZN7TypeInt3INTE, align 8
  %21 = load ptr, ptr %1, align 8
  %22 = getelementptr inbounds ptr, ptr %21, i64 10
  store ptr %20, ptr %22, align 8
  %23 = load ptr, ptr @_ZN7TypeInt3INTE, align 8
  %24 = load ptr, ptr %1, align 8
  %25 = getelementptr inbounds ptr, ptr %24, i64 11
  store ptr %23, ptr %25, align 8
  %26 = load ptr, ptr @_ZN7TypePtr6BOTTOME, align 8
  %27 = load ptr, ptr %1, align 8
  %28 = getelementptr inbounds ptr, ptr %27, i64 12
  store ptr %26, ptr %28, align 8
  %29 = load ptr, ptr @_ZN7TypePtr6BOTTOME, align 8
  %30 = load ptr, ptr %1, align 8
  %31 = getelementptr inbounds ptr, ptr %30, i64 13
  store ptr %29, ptr %31, align 8
  %32 = load ptr, ptr %1, align 8
  %33 = call noundef ptr @_ZN9TypeTuple4makeEjPPK4Type(i32 noundef 14, ptr noundef %32)
  store ptr %33, ptr %2, align 8
  %34 = call noundef ptr @_ZN9TypeTuple6fieldsEj(i32 noundef 0)
  store ptr %34, ptr %1, align 8
  %35 = load ptr, ptr %1, align 8
  %36 = call noundef ptr @_ZN9TypeTuple4makeEjPPK4Type(i32 noundef 5, ptr noundef %35)
  store ptr %36, ptr %3, align 8
  %37 = load ptr, ptr %2, align 8
  %38 = load ptr, ptr %3, align 8
  %39 = call noundef ptr @_ZN8TypeFunc4makeEPK9TypeTupleS2_(ptr noundef %37, ptr noundef %38)
  ret ptr %39
}

; Function Attrs: mustprogress nounwind uwtable
define hidden void @_ZN13ArrayCopyNodeC2EP7Compilebb(ptr noundef nonnull align 8 dereferenceable(152) %0, ptr noundef %1, i1 noundef zeroext %2, i1 noundef zeroext %3) unnamed_addr #1 align 2 {
  %5 = alloca ptr, align 8
  %6 = alloca ptr, align 8
  %7 = alloca i8, align 1
  %8 = alloca i8, align 1
  store ptr %0, ptr %5, align 8
  store ptr %1, ptr %6, align 8
  %9 = zext i1 %2 to i8
  store i8 %9, ptr %7, align 1
  %10 = zext i1 %3 to i8
  store i8 %10, ptr %8, align 1
  %11 = load ptr, ptr %5, align 8
  %12 = call noundef ptr @_ZN13ArrayCopyNode14arraycopy_typeEv()
  %13 = load ptr, ptr @_ZN7TypePtr6BOTTOME, align 8
  call void @_ZN8CallNodeC2EPK8TypeFuncPhPK7TypePtrP8JVMState(ptr noundef nonnull align 8 dereferenceable(128) %11, ptr noundef %12, ptr noundef null, ptr noundef %13, ptr noundef null)
  store ptr getelementptr inbounds inrange(-16, 240) ({ [32 x ptr] }, ptr @_ZTV13ArrayCopyNode, i32 0, i32 0, i32 2), ptr %11, align 8
  %14 = getelementptr inbounds %class.ArrayCopyNode, ptr %11, i32 0, i32 1
  store i32 0, ptr %14, align 8
  %15 = getelementptr inbounds %class.ArrayCopyNode, ptr %11, i32 0, i32 2
  %16 = load i8, ptr %7, align 1
  %17 = trunc i8 %16 to i1
  %18 = zext i1 %17 to i8
  store i8 %18, ptr %15, align 4
  %19 = getelementptr inbounds %class.ArrayCopyNode, ptr %11, i32 0, i32 3
  %20 = load i8, ptr %8, align 1
  %21 = trunc i8 %20 to i1
  %22 = zext i1 %21 to i8
  store i8 %22, ptr %19, align 1
  %23 = getelementptr inbounds %class.ArrayCopyNode, ptr %11, i32 0, i32 4
  store i8 0, ptr %23, align 2
  %24 = getelementptr inbounds %class.ArrayCopyNode, ptr %11, i32 0, i32 5
  %25 = load ptr, ptr @_ZN10TypeOopPtr6BOTTOME, align 8
  store ptr %25, ptr %24, align 8
  %26 = getelementptr inbounds %class.ArrayCopyNode, ptr %11, i32 0, i32 6
  %27 = load ptr, ptr @_ZN10TypeOopPtr6BOTTOME, align 8
  store ptr %27, ptr %26, align 8
  call void @_ZN4Node13init_class_idEj(ptr noundef nonnull align 8 dereferenceable(52) %11, i32 noundef 135)
  call void @_ZN4Node10init_flagsEj(ptr noundef nonnull align 8 dereferenceable(52) %11, i32 noundef 8)
  %28 = load ptr, ptr %6, align 8
  call void @_ZN7Compile14add_macro_nodeEP4Node(ptr noundef nonnull align 8 dereferenceable(2316) %28, ptr noundef %11)
  ret void
}