; Function Attrs: mustprogress nounwind uwtable
define hidden void @_ZN13ArrayCopyNodeC2EP7Compilebb(ptr noundef nonnull align 8 dereferenceable(152) %0, ptr noundef %1, i1 noundef zeroext %2, i1 noundef zeroext %3) unnamed_addr #0 align 2 {
  %5 = zext i1 %2 to i8
  %6 = zext i1 %3 to i8
  %7 = tail call noundef ptr @_ZN9TypeTuple6fieldsEj(i32 noundef 9) #10
  %8 = load ptr, ptr @_ZN11TypeInstPtr6BOTTOME, align 8
  %9 = getelementptr inbounds i8, ptr %7, i64 40
  store ptr %8, ptr %9, align 8
  %10 = load ptr, ptr @_ZN7TypeInt3INTE, align 8
  %11 = getelementptr inbounds i8, ptr %7, i64 48
  store ptr %10, ptr %11, align 8
  %12 = getelementptr inbounds i8, ptr %7, i64 56
  store ptr %8, ptr %12, align 8
  %13 = getelementptr inbounds i8, ptr %7, i64 64
  store ptr %10, ptr %13, align 8
  %14 = getelementptr inbounds i8, ptr %7, i64 72
  store ptr %10, ptr %14, align 8
  %15 = getelementptr inbounds i8, ptr %7, i64 80
  store ptr %10, ptr %15, align 8
  %16 = getelementptr inbounds i8, ptr %7, i64 88
  store ptr %10, ptr %16, align 8
  %17 = load ptr, ptr @_ZN7TypePtr6BOTTOME, align 8
  %18 = getelementptr inbounds i8, ptr %7, i64 96
  store ptr %17, ptr %18, align 8
  %19 = getelementptr inbounds i8, ptr %7, i64 104
  store ptr %17, ptr %19, align 8
  %20 = tail call noundef ptr @_ZN9TypeTuple4makeEjPPK4Type(i32 noundef 14, ptr noundef %7) #10
  %21 = tail call noundef ptr @_ZN9TypeTuple6fieldsEj(i32 noundef 0) #10
  %22 = tail call noundef ptr @_ZN9TypeTuple4makeEjPPK4Type(i32 noundef 5, ptr noundef %21) #10
  %23 = tail call noundef ptr @_ZN8TypeFunc4makeEPK9TypeTupleS2_(ptr noundef %20, ptr noundef %22) #10
  %24 = load ptr, ptr @_ZN7TypePtr6BOTTOME, align 8
  %25 = getelementptr inbounds i8, ptr %23, i64 24
  %26 = load ptr, ptr %25, align 8
  %27 = getelementptr inbounds i8, ptr %26, i64 20
  %28 = load i32, ptr %27, align 4
  tail call void @_ZN4NodeC2Ej(ptr noundef nonnull align 8 dereferenceable(52) %0, i32 noundef %28) #10
  %29 = getelementptr inbounds i8, ptr %0, i64 44
  %30 = getelementptr inbounds i8, ptr %0, i64 56
  store ptr null, ptr %30, align 8
  %31 = getelementptr inbounds i8, ptr %0, i64 64
  store ptr %24, ptr %31, align 8
  %32 = getelementptr inbounds i8, ptr %0, i64 72
  store ptr null, ptr %32, align 8
  %33 = getelementptr inbounds i8, ptr %0, i64 80
  store i8 0, ptr %33, align 8
  %34 = getelementptr inbounds i8, ptr %0, i64 88
  store ptr %23, ptr %34, align 8
  %35 = getelementptr inbounds i8, ptr %0, i64 96
  store ptr null, ptr %35, align 8
  %36 = getelementptr inbounds i8, ptr %0, i64 104
  store float -1.000000e+00, ptr %36, align 8
  %37 = getelementptr inbounds i8, ptr %0, i64 112
  tail call void @llvm.memset.p0.i64(ptr noundef nonnull align 8 dereferenceable(16) %37, i8 0, i64 16, i1 false)
  store ptr getelementptr inbounds inrange(-16, 240) (i8, ptr @_ZTV13ArrayCopyNode, i64 16), ptr %0, align 8
  %38 = getelementptr inbounds i8, ptr %0, i64 128
  store i32 0, ptr %38, align 8
  %39 = getelementptr inbounds i8, ptr %0, i64 132
  store i8 %5, ptr %39, align 4
  %40 = getelementptr inbounds i8, ptr %0, i64 133
  store i8 %6, ptr %40, align 1
  %41 = getelementptr inbounds i8, ptr %0, i64 134
  store i8 0, ptr %41, align 2
  %42 = getelementptr inbounds i8, ptr %0, i64 136
  %43 = load ptr, ptr @_ZN10TypeOopPtr6BOTTOME, align 8
  store ptr %43, ptr %42, align 8
  %44 = getelementptr inbounds i8, ptr %0, i64 144
  store ptr %43, ptr %44, align 8
  store i32 135, ptr %29, align 4
  %45 = getelementptr inbounds i8, ptr %0, i64 48
  %46 = load i32, ptr %45, align 8
  %47 = or i32 %46, 8
  store i32 %47, ptr %45, align 8
  %48 = getelementptr inbounds i8, ptr %1, i64 416
  %49 = load i32, ptr %48, align 8
  %50 = getelementptr inbounds i8, ptr %1, i64 420
  %51 = load i32, ptr %50, align 4
  %52 = icmp eq i32 %49, %51
  br i1 %52, label %53, label %_ZN7Compile14add_macro_nodeEP4Node.exit

53:                                               ; preds = %4
  %54 = add nsw i32 %49, 1
  %55 = icmp sgt i32 %49, -1
  %56 = xor i32 %49, -2147483648
  %57 = and i32 %56, %54
  %58 = icmp eq i32 %57, 0
  %59 = and i1 %55, %58
  %60 = tail call range(i32 0, 33) i32 @llvm.ctlz.i32(i32 %54, i1 true)
  %61 = sub nuw nsw i32 32, %60
  %62 = shl nuw i32 1, %61
  %.0.i.i.i.i.i = select i1 %59, i32 %54, i32 %62
  tail call void @_ZN26GrowableArrayWithAllocatorIP4Node13GrowableArrayIS1_EE9expand_toEi(ptr noundef nonnull align 8 dereferenceable(16) %48, i32 noundef %.0.i.i.i.i.i)
  %.pre.i.i = load i32, ptr %48, align 8
  br label %_ZN7Compile14add_macro_nodeEP4Node.exit

_ZN7Compile14add_macro_nodeEP4Node.exit:          ; preds = %4, %53
  %63 = phi i32 [ %.pre.i.i, %53 ], [ %49, %4 ]
  %64 = add nsw i32 %63, 1
  store i32 %64, ptr %48, align 8
  %65 = getelementptr inbounds i8, ptr %1, i64 424
  %66 = load ptr, ptr %65, align 8
  %67 = sext i32 %63 to i64
  %68 = getelementptr inbounds ptr, ptr %66, i64 %67
  store ptr %0, ptr %68, align 8
  ret void
}